; Function Attrs: nofree norecurse nosync nounwind memory(argmem: readwrite) uwtable
define internal noundef i32 @sbr_lf_gen(ptr noundef readonly captures(none) %0, ptr noundef writeonly captures(none) initializes((0, 10240)) %1, ptr noundef readonly captures(none) %2, i32 noundef %3) #10 {
  tail call void @llvm.memset.p0.i64(ptr noundef nonnull align 4 dereferenceable(10240) %1, i8 0, i64 10240, i1 false)
  %5 = getelementptr inbounds nuw i8, ptr %0, i64 88
  %6 = load i32, ptr %5, align 4, !tbaa !10
  %7 = icmp sgt i32 %6, 0
  br i1 %7, label %.preheader41.lr.ph, label %._crit_edge

.preheader41.lr.ph:                               ; preds = %4
  %8 = sext i32 %3 to i64
  br label %.preheader41

.preheader41:                                     ; preds = %.preheader41.lr.ph, %17
  %indvars.iv48 = phi i64 [ 0, %.preheader41.lr.ph ], [ %indvars.iv.next49, %17 ]
  br label %9

9:                                                ; preds = %.preheader41, %9
  %indvars.iv = phi i64 [ 8, %.preheader41 ], [ %indvars.iv.next, %9 ]
  %10 = add nsw i64 %indvars.iv, -8
  %11 = getelementptr inbounds [32 x [32 x [2 x i32]]], ptr %2, i64 %8, i64 %10, i64 %indvars.iv48
  %12 = load i32, ptr %11, align 4, !tbaa !10
  %13 = getelementptr inbounds nuw [40 x [2 x i32]], ptr %1, i64 %indvars.iv48, i64 %indvars.iv
  store i32 %12, ptr %13, align 4, !tbaa !10
  %14 = getelementptr inbounds nuw i8, ptr %11, i64 4
  %15 = load i32, ptr %14, align 4, !tbaa !10
  %16 = getelementptr inbounds nuw i8, ptr %13, i64 4
  store i32 %15, ptr %16, align 4, !tbaa !10
  %indvars.iv.next = add nuw nsw i64 %indvars.iv, 1
  %exitcond.not = icmp eq i64 %indvars.iv.next, 40
  br i1 %exitcond.not, label %17, label %9, !llvm.loop !239

17:                                               ; preds = %9
  %indvars.iv.next49 = add nuw nsw i64 %indvars.iv48, 1
  %18 = load i32, ptr %5, align 4, !tbaa !10
  %19 = sext i32 %18 to i64
  %20 = icmp slt i64 %indvars.iv.next49, %19
  br i1 %20, label %.preheader41, label %._crit_edge, !llvm.loop !240

._crit_edge:                                      ; preds = %17, %4
  %21 = getelementptr inbounds nuw i8, ptr %0, i64 84
  %22 = load i32, ptr %21, align 4, !tbaa !10
  %23 = icmp sgt i32 %22, 0
  br i1 %23, label %.preheader.lr.ph, label %._crit_edge46

.preheader.lr.ph:                                 ; preds = %._crit_edge
  %24 = sub nsw i32 1, %3
  %25 = sext i32 %24 to i64
  br label %.preheader

.preheader:                                       ; preds = %.preheader.lr.ph, %34
  %indvars.iv55 = phi i64 [ 0, %.preheader.lr.ph ], [ %indvars.iv.next56, %34 ]
  br label %26

26:                                               ; preds = %.preheader, %26
  %indvars.iv51 = phi i64 [ 0, %.preheader ], [ %indvars.iv.next52, %26 ]
  %27 = or disjoint i64 %indvars.iv51, 24
  %28 = getelementptr inbounds [32 x [32 x [2 x i32]]], ptr %2, i64 %25, i64 %27, i64 %indvars.iv55
  %29 = load i32, ptr %28, align 4, !tbaa !10
  %30 = getelementptr inbounds nuw [40 x [2 x i32]], ptr %1, i64 %indvars.iv55, i64 %indvars.iv51
  store i32 %29, ptr %30, align 4, !tbaa !10
  %31 = getelementptr inbounds nuw i8, ptr %28, i64 4
  %32 = load i32, ptr %31, align 4, !tbaa !10
  %33 = getelementptr inbounds nuw i8, ptr %30, i64 4
  store i32 %32, ptr %33, align 4, !tbaa !10
  %indvars.iv.next52 = add nuw nsw i64 %indvars.iv51, 1
  %exitcond54.not = icmp eq i64 %indvars.iv.next52, 8
  br i1 %exitcond54.not, label %34, label %26, !llvm.loop !241

34:                                               ; preds = %26
  %indvars.iv.next56 = add nuw nsw i64 %indvars.iv55, 1
  %35 = load i32, ptr %21, align 4, !tbaa !10
  %36 = sext i32 %35 to i64
  %37 = icmp slt i64 %indvars.iv.next56, %36
  br i1 %37, label %.preheader, label %._crit_edge46, !llvm.loop !242

._crit_edge46:                                    ; preds = %34, %._crit_edge
  ret i32 0
}